target datalayout = "e-m:e-p270:32:32-p271:32:32-p272:64:64-i64:64-i128:128-f80:128-n8:16:32:64-S128"
target triple = "x86_64-unknown-linux-gnu"

@_ZTISt17bad_function_call = external constant ptr

; Function Attrs: mustprogress uwtable
define internal void @_ZN12_GLOBAL__N_148ThrowDelegate_ThrowStdBadFunctionCallNoWhat_Test8TestBodyEv(ptr noundef nonnull align 8 dereferenceable(16) %this) unnamed_addr #4 align 2 personality ptr @__gxx_personality_v0 {
entry:
  %this.addr = alloca ptr, align 8
  %exn.slot = alloca ptr, align 8
  %ehselector.slot = alloca i32, align 4
  %0 = alloca ptr, align 8
  store ptr %this, ptr %this.addr, align 8
  invoke void @_ZN4absl13base_internal23ThrowStdBadFunctionCallEv() #14
          to label %invoke.cont unwind label %lpad

invoke.cont:                                      ; preds = %entry
  unreachable

lpad:                                             ; preds = %entry
  %1 = landingpad { ptr, i32 }
          catch ptr @_ZTISt17bad_function_call
  %2 = extractvalue { ptr, i32 } %1, 0
  store ptr %2, ptr %exn.slot, align 8
  %3 = extractvalue { ptr, i32 } %1, 1
  store i32 %3, ptr %ehselector.slot, align 4
  br label %catch.dispatch

catch.dispatch:                                   ; preds = %lpad
  %sel = load i32, ptr %ehselector.slot, align 4
  %4 = call i32 @llvm.eh.typeid.for(ptr @_ZTISt17bad_function_call) #3
  %matches = icmp eq i32 %sel, %4
  br i1 %matches, label %catch, label %eh.resume

catch:                                            ; preds = %catch.dispatch
  %exn = load ptr, ptr %exn.slot, align 8
  %5 = call ptr @__cxa_begin_catch(ptr %exn) #3
  store ptr %5, ptr %0, align 8
  call void @__cxa_end_catch()
  br label %try.cont

try.cont:                                         ; preds = %catch
  ret void

eh.resume:                                        ; preds = %catch.dispatch
  %exn2 = load ptr, ptr %exn.slot, align 8
  %sel3 = load i32, ptr %ehselector.slot, align 4
  %lpad.val = insertvalue { ptr, i32 } poison, ptr %exn2, 0
  %lpad.val4 = insertvalue { ptr, i32 } %lpad.val, i32 %sel3, 1
  resume { ptr, i32 } %lpad.val4
}