; Function Attrs: mustprogress uwtable
define internal void @_ZN12_GLOBAL__N_148ThrowDelegate_ThrowStdBadFunctionCallNoWhat_Test8TestBodyEv(ptr nocapture nonnull readnone align 8 %this) unnamed_addr #3 align 2 personality ptr @__gxx_personality_v0 {
entry:
  invoke void @_ZN4absl13base_internal23ThrowStdBadFunctionCallEv() #17
          to label %invoke.cont unwind label %lpad

invoke.cont:                                      ; preds = %entry
  unreachable

lpad:                                             ; preds = %entry
  %0 = landingpad { ptr, i32 }
          catch ptr @_ZTISt17bad_function_call
  %1 = extractvalue { ptr, i32 } %0, 1
  %2 = tail call i32 @llvm.eh.typeid.for(ptr nonnull @_ZTISt17bad_function_call) #13
  %matches = icmp eq i32 %1, %2
  br i1 %matches, label %catch, label %eh.resume

catch:                                            ; preds = %lpad
  %3 = extractvalue { ptr, i32 } %0, 0
  %4 = tail call ptr @__cxa_begin_catch(ptr %3) #13
  tail call void @__cxa_end_catch()
  ret void

eh.resume:                                        ; preds = %lpad
  resume { ptr, i32 } %0
}